; Function Attrs: mustprogress nounwind uwtable
define noundef zeroext i1 @_ZN3g2o13strStartsWithERKNSt7__cxx1112basic_stringIcSt11char_traitsIcESaIcEEES7_(ptr noundef nonnull align 8 dereferenceable(32) %0, ptr noundef nonnull align 8 dereferenceable(32) %1) local_unnamed_addr #4 {
  %3 = tail call noundef i64 @_ZNKSt7__cxx1112basic_stringIcSt11char_traitsIcESaIcEE4sizeEv(ptr noundef nonnull align 8 dereferenceable(32) %0) #16
  %4 = tail call noundef i64 @_ZNKSt7__cxx1112basic_stringIcSt11char_traitsIcESaIcEE4sizeEv(ptr noundef nonnull align 8 dereferenceable(32) %1) #16
  %5 = icmp ult i64 %3, %4
  br i1 %5, label %_ZSt5equalIN9__gnu_cxx17__normal_iteratorIPKcNSt7__cxx1112basic_stringIcSt11char_traitsIcESaIcEEEEESA_EbT_SB_T0_.exit, label %6

6:                                                ; preds = %2
  %7 = tail call ptr @_ZNKSt7__cxx1112basic_stringIcSt11char_traitsIcESaIcEE5beginEv(ptr noundef nonnull align 8 dereferenceable(32) %1) #16
  %8 = tail call ptr @_ZNKSt7__cxx1112basic_stringIcSt11char_traitsIcESaIcEE3endEv(ptr noundef nonnull align 8 dereferenceable(32) %1) #16
  %9 = tail call ptr @_ZNKSt7__cxx1112basic_stringIcSt11char_traitsIcESaIcEE5beginEv(ptr noundef nonnull align 8 dereferenceable(32) %0) #16
  %.not.i.i.i.i = icmp eq ptr %8, %7
  br i1 %.not.i.i.i.i, label %_ZSt5equalIN9__gnu_cxx17__normal_iteratorIPKcNSt7__cxx1112basic_stringIcSt11char_traitsIcESaIcEEEEESA_EbT_SB_T0_.exit, label %10

10:                                               ; preds = %6
  %11 = ptrtoint ptr %7 to i64
  %12 = ptrtoint ptr %8 to i64
  %13 = sub i64 %12, %11
  %bcmp.i.i.i.i = tail call i32 @bcmp(ptr %7, ptr %9, i64 %13)
  %.not7.i.i.i.i = icmp eq i32 %bcmp.i.i.i.i, 0
  br label %_ZSt5equalIN9__gnu_cxx17__normal_iteratorIPKcNSt7__cxx1112basic_stringIcSt11char_traitsIcESaIcEEEEESA_EbT_SB_T0_.exit

_ZSt5equalIN9__gnu_cxx17__normal_iteratorIPKcNSt7__cxx1112basic_stringIcSt11char_traitsIcESaIcEEEEESA_EbT_SB_T0_.exit: ; preds = %10, %6, %2
  %.0 = phi i1 [ false, %2 ], [ %.not7.i.i.i.i, %10 ], [ true, %6 ]
  ret i1 %.0
}